target datalayout = "e-m:e-p270:32:32-p271:32:32-p272:64:64-i64:64-i128:128-f80:128-n8:16:32:64-S128"
target triple = "x86_64-pc-linux-gnu"

%struct._object = type { %union.anon, ptr }
%union.anon = type { i64 }
%struct._longobject = type { %struct._object, %struct._PyLongValue }
%struct._PyLongValue = type { i64, [1 x i32] }
%struct.anon = type { i32, i32 }

@.str.51 = private unnamed_addr constant [3 x i8] c"UU\00", align 1
@_Py_FalseStruct = external global %struct._longobject, align 8
@_Py_TrueStruct = external global %struct._longobject, align 8

; Function Attrs: alwaysinline nounwind uwtable
define internal void @Py_INCREF(ptr noundef %0) #5 {
  %2 = alloca ptr, align 8
  %3 = alloca i32, align 4
  %4 = alloca i32, align 4
  store ptr %0, ptr %2, align 8, !tbaa !16
  call void @llvm.lifetime.start.p0(i64 4, ptr %3) #10
  %5 = load ptr, ptr %2, align 8, !tbaa !16
  %6 = getelementptr inbounds nuw %struct._object, ptr %5, i32 0, i32 0
  %7 = getelementptr inbounds nuw %struct.anon, ptr %6, i32 0, i32 0
  %8 = load i32, ptr %7, align 8, !tbaa !26
  store i32 %8, ptr %3, align 4, !tbaa !9
  %9 = load i32, ptr %3, align 4, !tbaa !9
  %10 = icmp slt i32 %9, 0
  br i1 %10, label %11, label %12

11:                                               ; preds = %1
  store i32 1, ptr %4, align 4
  br label %18

12:                                               ; preds = %1
  %13 = load i32, ptr %3, align 4, !tbaa !9
  %14 = add i32 %13, 1
  %15 = load ptr, ptr %2, align 8, !tbaa !16
  %16 = getelementptr inbounds nuw %struct._object, ptr %15, i32 0, i32 0
  %17 = getelementptr inbounds nuw %struct.anon, ptr %16, i32 0, i32 0
  store i32 %14, ptr %17, align 8, !tbaa !26
  store i32 0, ptr %4, align 4
  br label %18

18:                                               ; preds = %12, %11
  call void @llvm.lifetime.end.p0(i64 4, ptr %3) #10
  %19 = load i32, ptr %4, align 4
  switch i32 %19, label %21 [
    i32 0, label %20
    i32 1, label %20
  ]

20:                                               ; preds = %18, %18
  ret void

21:                                               ; preds = %18
  unreachable
}

; Function Attrs: inlinehint nounwind uwtable
define internal ptr @_Py_NewRef(ptr noundef %0) #4 {
  %2 = alloca ptr, align 8
  store ptr %0, ptr %2, align 8, !tbaa !16
  %3 = load ptr, ptr %2, align 8, !tbaa !16
  call void @Py_INCREF(ptr noundef %3)
  %4 = load ptr, ptr %2, align 8, !tbaa !16
  ret ptr %4
}

; Function Attrs: nounwind uwtable
define internal ptr @getpath_hassuffix(ptr noundef %0, ptr noundef %1) #0 {
  %3 = alloca ptr, align 8
  %4 = alloca ptr, align 8
  %5 = alloca ptr, align 8
  %6 = alloca ptr, align 8
  %7 = alloca ptr, align 8
  %8 = alloca ptr, align 8
  %9 = alloca ptr, align 8
  %10 = alloca ptr, align 8
  %11 = alloca i32, align 4
  %12 = alloca i64, align 8
  %13 = alloca i64, align 8
  store ptr %0, ptr %4, align 8, !tbaa !16
  store ptr %1, ptr %5, align 8, !tbaa !16
  call void @llvm.lifetime.start.p0(i64 8, ptr %6) #10
  store ptr null, ptr %6, align 8, !tbaa !16
  call void @llvm.lifetime.start.p0(i64 8, ptr %7) #10
  call void @llvm.lifetime.start.p0(i64 8, ptr %8) #10
  call void @llvm.lifetime.start.p0(i64 8, ptr %9) #10
  call void @llvm.lifetime.start.p0(i64 8, ptr %10) #10
  %14 = load ptr, ptr %5, align 8, !tbaa !16
  %15 = call i32 (ptr, ptr, ...) @PyArg_ParseTuple(ptr noundef %14, ptr noundef @.str.51, ptr noundef %7, ptr noundef %8)
  %16 = icmp ne i32 %15, 0
  br i1 %16, label %18, label %17

17:                                               ; preds = %2
  store ptr null, ptr %3, align 8
  store i32 1, ptr %11, align 4
  br label %51

18:                                               ; preds = %2
  call void @llvm.lifetime.start.p0(i64 8, ptr %12) #10
  call void @llvm.lifetime.start.p0(i64 8, ptr %13) #10
  %19 = load ptr, ptr %7, align 8, !tbaa !16
  %20 = call ptr @PyUnicode_AsWideCharString(ptr noundef %19, ptr noundef %12)
  store ptr %20, ptr %9, align 8, !tbaa !29
  %21 = load ptr, ptr %9, align 8, !tbaa !29
  %22 = icmp ne ptr %21, null
  br i1 %22, label %23, label %49

23:                                               ; preds = %18
  %24 = load ptr, ptr %8, align 8, !tbaa !16
  %25 = call ptr @PyUnicode_AsWideCharString(ptr noundef %24, ptr noundef %13)
  store ptr %25, ptr %10, align 8, !tbaa !29
  %26 = load ptr, ptr %10, align 8, !tbaa !29
  %27 = icmp ne ptr %26, null
  br i1 %27, label %28, label %47

28:                                               ; preds = %23
  %29 = load i64, ptr %13, align 8, !tbaa !30
  %30 = load i64, ptr %12, align 8, !tbaa !30
  %31 = icmp sgt i64 %29, %30
  br i1 %31, label %41, label %32

32:                                               ; preds = %28
  %33 = load ptr, ptr %9, align 8, !tbaa !29
  %34 = load i64, ptr %12, align 8, !tbaa !30
  %35 = load i64, ptr %13, align 8, !tbaa !30
  %36 = sub i64 %34, %35
  %37 = getelementptr i32, ptr %33, i64 %36
  %38 = load ptr, ptr %10, align 8, !tbaa !29
  %39 = call i32 @wcscmp(ptr noundef %37, ptr noundef %38) #11
  %40 = icmp ne i32 %39, 0
  br i1 %40, label %41, label %43

41:                                               ; preds = %32, %28
  %42 = call ptr @_Py_NewRef(ptr noundef @_Py_FalseStruct)
  store ptr %42, ptr %6, align 8, !tbaa !16
  br label %45

43:                                               ; preds = %32
  %44 = call ptr @_Py_NewRef(ptr noundef @_Py_TrueStruct)
  store ptr %44, ptr %6, align 8, !tbaa !16
  br label %45

45:                                               ; preds = %43, %41
  %46 = load ptr, ptr %10, align 8, !tbaa !29
  call void @PyMem_Free(ptr noundef %46)
  br label %47

47:                                               ; preds = %45, %23
  %48 = load ptr, ptr %9, align 8, !tbaa !29
  call void @PyMem_Free(ptr noundef %48)
  br label %49

49:                                               ; preds = %47, %18
  %50 = load ptr, ptr %6, align 8, !tbaa !16
  store ptr %50, ptr %3, align 8
  store i32 1, ptr %11, align 4
  call void @llvm.lifetime.end.p0(i64 8, ptr %13) #10
  call void @llvm.lifetime.end.p0(i64 8, ptr %12) #10
  br label %51

51:                                               ; preds = %49, %17
  call void @llvm.lifetime.end.p0(i64 8, ptr %10) #10
  call void @llvm.lifetime.end.p0(i64 8, ptr %9) #10
  call void @llvm.lifetime.end.p0(i64 8, ptr %8) #10
  call void @llvm.lifetime.end.p0(i64 8, ptr %7) #10
  call void @llvm.lifetime.end.p0(i64 8, ptr %6) #10
  %52 = load ptr, ptr %3, align 8
  ret ptr %52
}