; Function Attrs: nounwind uwtable
define internal noundef ptr @getpath_hassuffix(ptr readnone captures(none) %0, ptr noundef %1) #0 {
  %3 = alloca ptr, align 8
  %4 = alloca ptr, align 8
  %5 = alloca i64, align 8
  %6 = alloca i64, align 8
  call void @llvm.lifetime.start.p0(i64 8, ptr nonnull %3) #13
  call void @llvm.lifetime.start.p0(i64 8, ptr nonnull %4) #13
  %7 = call i32 (ptr, ptr, ...) @PyArg_ParseTuple(ptr noundef %1, ptr noundef nonnull @.str.51, ptr noundef nonnull %3, ptr noundef nonnull %4) #13
  %.not = icmp eq i32 %7, 0
  br i1 %.not, label %31, label %8

8:                                                ; preds = %2
  call void @llvm.lifetime.start.p0(i64 8, ptr nonnull %5) #13
  call void @llvm.lifetime.start.p0(i64 8, ptr nonnull %6) #13
  %9 = load ptr, ptr %3, align 8, !tbaa !31
  %10 = call ptr @PyUnicode_AsWideCharString(ptr noundef %9, ptr noundef nonnull %5) #13
  %.not14 = icmp eq ptr %10, null
  br i1 %.not14, label %30, label %11

11:                                               ; preds = %8
  %12 = load ptr, ptr %4, align 8, !tbaa !31
  %13 = call ptr @PyUnicode_AsWideCharString(ptr noundef %12, ptr noundef nonnull %6) #13
  %.not15 = icmp eq ptr %13, null
  br i1 %.not15, label %29, label %14

14:                                               ; preds = %11
  %15 = load i64, ptr %6, align 8, !tbaa !26
  %16 = load i64, ptr %5, align 8, !tbaa !26
  %17 = icmp sgt i64 %15, %16
  br i1 %17, label %22, label %18

18:                                               ; preds = %14
  %19 = sub i64 %16, %15
  %20 = getelementptr i32, ptr %10, i64 %19
  %21 = call i32 @wcscmp(ptr noundef %20, ptr noundef nonnull %13) #14
  %.not16 = icmp eq i32 %21, 0
  br i1 %.not16, label %25, label %22

22:                                               ; preds = %18, %14
  %23 = load i32, ptr @_Py_FalseStruct, align 8, !tbaa !16
  %24 = icmp slt i32 %23, 0
  br i1 %24, label %_Py_NewRef.exit, label %_Py_NewRef.exit.sink.split

25:                                               ; preds = %18
  %26 = load i32, ptr @_Py_TrueStruct, align 8, !tbaa !16
  %27 = icmp slt i32 %26, 0
  br i1 %27, label %_Py_NewRef.exit, label %_Py_NewRef.exit.sink.split

_Py_NewRef.exit.sink.split:                       ; preds = %25, %22
  %.sink18 = phi i32 [ %23, %22 ], [ %26, %25 ]
  %_Py_TrueStruct.sink = phi ptr [ @_Py_FalseStruct, %22 ], [ @_Py_TrueStruct, %25 ]
  %28 = add nuw i32 %.sink18, 1
  store i32 %28, ptr %_Py_TrueStruct.sink, align 8, !tbaa !16
  br label %_Py_NewRef.exit

_Py_NewRef.exit:                                  ; preds = %_Py_NewRef.exit.sink.split, %25, %22
  %.2 = phi ptr [ @_Py_FalseStruct, %22 ], [ @_Py_TrueStruct, %25 ], [ %_Py_TrueStruct.sink, %_Py_NewRef.exit.sink.split ]
  call void @PyMem_Free(ptr noundef nonnull %13) #13
  br label %29

29:                                               ; preds = %_Py_NewRef.exit, %11
  %.1 = phi ptr [ %.2, %_Py_NewRef.exit ], [ null, %11 ]
  call void @PyMem_Free(ptr noundef nonnull %10) #13
  br label %30

30:                                               ; preds = %29, %8
  %.09 = phi ptr [ %.1, %29 ], [ null, %8 ]
  call void @llvm.lifetime.end.p0(i64 8, ptr nonnull %6) #13
  call void @llvm.lifetime.end.p0(i64 8, ptr nonnull %5) #13
  br label %31

31:                                               ; preds = %2, %30
  %.0 = phi ptr [ %.09, %30 ], [ null, %2 ]
  call void @llvm.lifetime.end.p0(i64 8, ptr nonnull %4) #13
  call void @llvm.lifetime.end.p0(i64 8, ptr nonnull %3) #13
  ret ptr %.0
}